; Function Attrs: mustprogress nofree norecurse nosync nounwind willreturn memory(readwrite, inaccessiblemem: none) uwtable
define void @_ZN5Ipopt30ExpandedMultiVectorMatrixSpaceC2EiRKNS_11VectorSpaceENS_8SmartPtrIKNS_15ExpansionMatrixEEE(ptr noundef nonnull writeonly align 8 captures(none) dereferenceable(40) initializes((0, 20), (24, 40)) %0, i32 noundef %1, ptr noundef nonnull align 8 dereferenceable(16) %2, ptr noundef readonly captures(none) %3) unnamed_addr #7 align 2 personality ptr @__gxx_personality_v0 {
  %5 = load ptr, ptr %3, align 8, !tbaa !44
  %.not = icmp eq ptr %5, null
  br i1 %.not, label %9, label %6

6:                                                ; preds = %4
  %7 = getelementptr inbounds nuw i8, ptr %5, i64 56
  %8 = load ptr, ptr %7, align 8, !tbaa !10
  br label %9

9:                                                ; preds = %4, %6
  %.pn = phi ptr [ %8, %6 ], [ %2, %4 ]
  %.in = getelementptr inbounds nuw i8, ptr %.pn, i64 12
  %10 = load i32, ptr %.in, align 4, !tbaa !119
  %11 = getelementptr inbounds nuw i8, ptr %0, i64 8
  store i32 0, ptr %11, align 8, !tbaa !3
  %12 = getelementptr inbounds nuw i8, ptr %0, i64 12
  store i32 %1, ptr %12, align 4, !tbaa !33
  %13 = getelementptr inbounds nuw i8, ptr %0, i64 16
  store i32 %10, ptr %13, align 8, !tbaa !120
  store ptr getelementptr inbounds nuw inrange(-16, 24) (i8, ptr @_ZTVN5Ipopt30ExpandedMultiVectorMatrixSpaceE, i64 16), ptr %0, align 8, !tbaa !8
  %14 = getelementptr inbounds nuw i8, ptr %0, i64 24
  %15 = getelementptr inbounds nuw i8, ptr %2, i64 8
  %16 = load i32, ptr %15, align 8, !tbaa !3
  %17 = add nsw i32 %16, 1
  store i32 %17, ptr %15, align 8, !tbaa !3
  store ptr %2, ptr %14, align 8, !tbaa !50
  %18 = getelementptr inbounds nuw i8, ptr %0, i64 32
  store ptr null, ptr %18, align 8, !tbaa !44
  %19 = load ptr, ptr %3, align 8, !tbaa !44
  %.not.i.i.i = icmp eq ptr %19, null
  br i1 %.not.i.i.i, label %24, label %20

20:                                               ; preds = %9
  %21 = getelementptr inbounds nuw i8, ptr %19, i64 8
  %22 = load i32, ptr %21, align 8, !tbaa !3
  %23 = add nsw i32 %22, 1
  store i32 %23, ptr %21, align 8, !tbaa !3
  br label %24

24:                                               ; preds = %20, %9
  store ptr %19, ptr %18, align 8, !tbaa !44
  ret void
}